target datalayout = "e-m:e-p270:32:32-p271:32:32-p272:64:64-i64:64-i128:128-f80:128-n8:16:32:64-S128"
target triple = "x86_64-pc-linux-gnu"

%struct._object = type { %union.anon, ptr }
%union.anon = type { i64 }
%struct.ast_state = type { %struct._PyOnceFlag, i32, ptr, ptr, ptr, ptr, ptr, ptr, ptr, ptr, ptr, ptr, ptr, ptr, ptr, ptr, ptr, ptr, ptr, ptr, ptr, ptr, ptr, ptr, ptr, ptr, ptr, ptr, ptr, ptr, ptr, ptr, ptr, ptr, ptr, ptr, ptr, ptr, ptr, ptr, ptr, ptr, ptr, ptr, ptr, ptr, ptr, ptr, ptr, ptr, ptr, ptr, ptr, ptr, ptr, ptr, ptr, ptr, ptr, ptr, ptr, ptr, ptr, ptr, ptr, ptr, ptr, ptr, ptr, ptr, ptr, ptr, ptr, ptr, ptr, ptr, ptr, ptr, ptr, ptr, ptr, ptr, ptr, ptr, ptr, ptr, ptr, ptr, ptr, ptr, ptr, ptr, ptr, ptr, ptr, ptr, ptr, ptr, ptr, ptr, ptr, ptr, ptr, ptr, ptr, ptr, ptr, ptr, ptr, ptr, ptr, ptr, ptr, ptr, ptr, ptr, ptr, ptr, ptr, ptr, ptr, ptr, ptr, ptr, ptr, ptr, ptr, ptr, ptr, ptr, ptr, ptr, ptr, ptr, ptr, ptr, ptr, ptr, ptr, ptr, ptr, ptr, ptr, ptr, ptr, ptr, ptr, ptr, ptr, ptr, ptr, ptr, ptr, ptr, ptr, ptr, ptr, ptr, ptr, ptr, ptr, ptr, ptr, ptr, ptr, ptr, ptr, ptr, ptr, ptr, ptr, ptr, ptr, ptr, ptr, ptr, ptr, ptr, ptr, ptr, ptr, ptr, ptr, ptr, ptr, ptr, ptr, ptr, ptr, ptr, ptr, ptr, ptr, ptr, ptr, ptr, ptr, ptr, ptr, ptr, ptr, ptr, ptr, ptr, ptr, ptr, ptr, ptr, ptr, ptr, ptr, ptr, ptr, ptr, ptr, ptr, ptr, ptr, ptr, ptr, ptr, ptr, ptr, ptr, ptr, ptr, ptr, ptr, ptr, ptr, ptr, ptr, ptr, ptr, ptr, ptr, ptr, ptr, ptr, ptr, ptr, ptr, ptr, ptr, ptr }
%struct._PyOnceFlag = type { i8 }
%struct.anon.4 = type { i32, i32 }
%struct._type_ignore = type { i32, %union.anon.76 }
%union.anon.76 = type { %struct.anon.77 }
%struct.anon.77 = type { i32, ptr }
%struct.validator = type { i32, i32 }

@_Py_NoneStruct = external global %struct._object, align 8
@PyExc_RecursionError = external global ptr, align 8
@.str.409 = private unnamed_addr constant [57 x i8] c"maximum recursion depth exceeded during ast construction\00", align 1

; Function Attrs: alwaysinline nounwind uwtable
define internal void @Py_INCREF(ptr noundef %0) #2 {
  %2 = alloca ptr, align 8
  %3 = alloca i32, align 4
  %4 = alloca i32, align 4
  store ptr %0, ptr %2, align 8, !tbaa !13
  call void @llvm.lifetime.start.p0(i64 4, ptr %3) #8
  %5 = load ptr, ptr %2, align 8, !tbaa !13
  %6 = getelementptr inbounds nuw %struct._object, ptr %5, i32 0, i32 0
  %7 = getelementptr inbounds nuw %struct.anon.4, ptr %6, i32 0, i32 0
  %8 = load i32, ptr %7, align 8, !tbaa !21
  store i32 %8, ptr %3, align 4, !tbaa !38
  %9 = load i32, ptr %3, align 4, !tbaa !38
  %10 = icmp slt i32 %9, 0
  br i1 %10, label %11, label %12

11:                                               ; preds = %1
  store i32 1, ptr %4, align 4
  br label %18

12:                                               ; preds = %1
  %13 = load i32, ptr %3, align 4, !tbaa !38
  %14 = add i32 %13, 1
  %15 = load ptr, ptr %2, align 8, !tbaa !13
  %16 = getelementptr inbounds nuw %struct._object, ptr %15, i32 0, i32 0
  %17 = getelementptr inbounds nuw %struct.anon.4, ptr %16, i32 0, i32 0
  store i32 %14, ptr %17, align 8, !tbaa !21
  store i32 0, ptr %4, align 4
  br label %18

18:                                               ; preds = %12, %11
  call void @llvm.lifetime.end.p0(i64 4, ptr %3) #8
  %19 = load i32, ptr %4, align 4
  switch i32 %19, label %21 [
    i32 0, label %20
    i32 1, label %20
  ]

20:                                               ; preds = %18, %18
  ret void

21:                                               ; preds = %18
  unreachable
}

; Function Attrs: inlinehint nounwind uwtable
define internal ptr @_Py_NewRef(ptr noundef %0) #6 {
  %2 = alloca ptr, align 8
  store ptr %0, ptr %2, align 8, !tbaa !13
  %3 = load ptr, ptr %2, align 8, !tbaa !13
  call void @Py_INCREF(ptr noundef %3)
  %4 = load ptr, ptr %2, align 8, !tbaa !13
  ret ptr %4
}

; Function Attrs: alwaysinline nounwind uwtable
define internal i32 @_Py_IsImmortal(ptr noundef %0) #2 {
  %2 = alloca ptr, align 8
  store ptr %0, ptr %2, align 8, !tbaa !13
  %3 = load ptr, ptr %2, align 8, !tbaa !13
  %4 = getelementptr inbounds nuw %struct._object, ptr %3, i32 0, i32 0
  %5 = getelementptr inbounds nuw %struct.anon.4, ptr %4, i32 0, i32 0
  %6 = load i32, ptr %5, align 8, !tbaa !21
  %7 = icmp slt i32 %6, 0
  %8 = zext i1 %7 to i32
  ret i32 %8
}

; Function Attrs: inlinehint nounwind uwtable
define internal void @Py_XDECREF(ptr noundef %0) #6 {
  %2 = alloca ptr, align 8
  store ptr %0, ptr %2, align 8, !tbaa !13
  %3 = load ptr, ptr %2, align 8, !tbaa !13
  %4 = icmp ne ptr %3, null
  br i1 %4, label %5, label %7

5:                                                ; preds = %1
  %6 = load ptr, ptr %2, align 8, !tbaa !13
  call void @Py_DECREF(ptr noundef %6)
  br label %7

7:                                                ; preds = %5, %1
  ret void
}

; Function Attrs: nounwind uwtable
define internal ptr @ast2obj_object(ptr noundef %0, ptr noundef %1, ptr noundef %2) #0 {
  %4 = alloca ptr, align 8
  %5 = alloca ptr, align 8
  %6 = alloca ptr, align 8
  %7 = alloca ptr, align 8
  store ptr %0, ptr %4, align 8, !tbaa !9
  store ptr %1, ptr %5, align 8, !tbaa !147
  store ptr %2, ptr %6, align 8, !tbaa !26
  call void @llvm.lifetime.start.p0(i64 8, ptr %7) #8
  %8 = load ptr, ptr %6, align 8, !tbaa !26
  store ptr %8, ptr %7, align 8, !tbaa !13
  %9 = load ptr, ptr %7, align 8, !tbaa !13
  %10 = icmp ne ptr %9, null
  br i1 %10, label %12, label %11

11:                                               ; preds = %3
  store ptr @_Py_NoneStruct, ptr %7, align 8, !tbaa !13
  br label %12

12:                                               ; preds = %11, %3
  %13 = load ptr, ptr %7, align 8, !tbaa !13
  %14 = call ptr @_Py_NewRef(ptr noundef %13)
  call void @llvm.lifetime.end.p0(i64 8, ptr %7) #8
  ret ptr %14
}

; Function Attrs: alwaysinline nounwind uwtable
define internal void @Py_DECREF(ptr noundef %0) #2 {
  %2 = alloca ptr, align 8
  store ptr %0, ptr %2, align 8, !tbaa !13
  %3 = load ptr, ptr %2, align 8, !tbaa !13
  %4 = call i32 @_Py_IsImmortal(ptr noundef %3)
  %5 = icmp ne i32 %4, 0
  br i1 %5, label %6, label %7

6:                                                ; preds = %1
  br label %16

7:                                                ; preds = %1
  %8 = load ptr, ptr %2, align 8, !tbaa !13
  %9 = getelementptr inbounds nuw %struct._object, ptr %8, i32 0, i32 0
  %10 = getelementptr inbounds nuw %struct.anon.4, ptr %9, i32 0, i32 0
  %11 = load i32, ptr %10, align 8, !tbaa !21
  %12 = add i32 %11, -1
  store i32 %12, ptr %10, align 8, !tbaa !21
  %13 = icmp eq i32 %12, 0
  br i1 %13, label %14, label %16

14:                                               ; preds = %7
  %15 = load ptr, ptr %2, align 8, !tbaa !13
  call void @_Py_Dealloc(ptr noundef %15)
  br label %16

16:                                               ; preds = %6, %14, %7
  ret void
}

; Function Attrs: nounwind uwtable
define internal ptr @ast2obj_int(ptr noundef %0, ptr noundef %1, i64 noundef %2) #0 {
  %4 = alloca ptr, align 8
  %5 = alloca ptr, align 8
  %6 = alloca i64, align 8
  store ptr %0, ptr %4, align 8, !tbaa !9
  store ptr %1, ptr %5, align 8, !tbaa !147
  store i64 %2, ptr %6, align 8, !tbaa !22
  %7 = load i64, ptr %6, align 8, !tbaa !22
  %8 = call ptr @PyLong_FromLong(i64 noundef %7)
  ret ptr %8
}

; Function Attrs: nounwind uwtable
define internal ptr @ast2obj_type_ignore(ptr noundef %0, ptr noundef %1, ptr noundef %2) #0 {
  %4 = alloca ptr, align 8
  %5 = alloca ptr, align 8
  %6 = alloca ptr, align 8
  %7 = alloca ptr, align 8
  %8 = alloca ptr, align 8
  %9 = alloca ptr, align 8
  %10 = alloca ptr, align 8
  %11 = alloca ptr, align 8
  %12 = alloca i32, align 4
  store ptr %0, ptr %5, align 8, !tbaa !9
  store ptr %1, ptr %6, align 8, !tbaa !147
  store ptr %2, ptr %7, align 8, !tbaa !26
  call void @llvm.lifetime.start.p0(i64 8, ptr %8) #8
  %13 = load ptr, ptr %7, align 8, !tbaa !26
  store ptr %13, ptr %8, align 8, !tbaa !123
  call void @llvm.lifetime.start.p0(i64 8, ptr %9) #8
  store ptr null, ptr %9, align 8, !tbaa !13
  call void @llvm.lifetime.start.p0(i64 8, ptr %10) #8
  store ptr null, ptr %10, align 8, !tbaa !13
  call void @llvm.lifetime.start.p0(i64 8, ptr %11) #8
  %14 = load ptr, ptr %8, align 8, !tbaa !123
  %15 = icmp ne ptr %14, null
  br i1 %15, label %17, label %16

16:                                               ; preds = %3
  store ptr @_Py_NoneStruct, ptr %4, align 8
  store i32 1, ptr %12, align 4
  br label %98

17:                                               ; preds = %3
  %18 = load ptr, ptr %6, align 8, !tbaa !147
  %19 = getelementptr inbounds nuw %struct.validator, ptr %18, i32 0, i32 0
  %20 = load i32, ptr %19, align 4, !tbaa !146
  %21 = add i32 %20, 1
  store i32 %21, ptr %19, align 4, !tbaa !146
  %22 = load ptr, ptr %6, align 8, !tbaa !147
  %23 = getelementptr inbounds nuw %struct.validator, ptr %22, i32 0, i32 1
  %24 = load i32, ptr %23, align 4, !tbaa !137
  %25 = icmp sgt i32 %21, %24
  br i1 %25, label %26, label %28

26:                                               ; preds = %17
  %27 = load ptr, ptr @PyExc_RecursionError, align 8, !tbaa !13
  call void @PyErr_SetString(ptr noundef %27, ptr noundef @.str.409)
  store ptr null, ptr %4, align 8
  store i32 1, ptr %12, align 4
  br label %98

28:                                               ; preds = %17
  %29 = load ptr, ptr %8, align 8, !tbaa !123
  %30 = getelementptr inbounds nuw %struct._type_ignore, ptr %29, i32 0, i32 0
  %31 = load i32, ptr %30, align 8, !tbaa !125
  switch i32 %31, label %85 [
    i32 1, label %32
  ]

32:                                               ; preds = %28
  %33 = load ptr, ptr %5, align 8, !tbaa !9
  %34 = getelementptr inbounds nuw %struct.ast_state, ptr %33, i32 0, i32 127
  %35 = load ptr, ptr %34, align 8, !tbaa !288
  store ptr %35, ptr %11, align 8, !tbaa !150
  %36 = load ptr, ptr %11, align 8, !tbaa !150
  %37 = call ptr @PyType_GenericNew(ptr noundef %36, ptr noundef null, ptr noundef null)
  store ptr %37, ptr %9, align 8, !tbaa !13
  %38 = load ptr, ptr %9, align 8, !tbaa !13
  %39 = icmp ne ptr %38, null
  br i1 %39, label %41, label %40

40:                                               ; preds = %32
  br label %91

41:                                               ; preds = %32
  %42 = load ptr, ptr %5, align 8, !tbaa !9
  %43 = load ptr, ptr %6, align 8, !tbaa !147
  %44 = load ptr, ptr %8, align 8, !tbaa !123
  %45 = getelementptr inbounds nuw %struct._type_ignore, ptr %44, i32 0, i32 1
  %46 = getelementptr inbounds nuw %struct.anon.77, ptr %45, i32 0, i32 0
  %47 = load i32, ptr %46, align 8, !tbaa !21
  %48 = sext i32 %47 to i64
  %49 = call ptr @ast2obj_int(ptr noundef %42, ptr noundef %43, i64 noundef %48)
  store ptr %49, ptr %10, align 8, !tbaa !13
  %50 = load ptr, ptr %10, align 8, !tbaa !13
  %51 = icmp ne ptr %50, null
  br i1 %51, label %53, label %52

52:                                               ; preds = %41
  br label %91

53:                                               ; preds = %41
  %54 = load ptr, ptr %9, align 8, !tbaa !13
  %55 = load ptr, ptr %5, align 8, !tbaa !9
  %56 = getelementptr inbounds nuw %struct.ast_state, ptr %55, i32 0, i32 203
  %57 = load ptr, ptr %56, align 8, !tbaa !391
  %58 = load ptr, ptr %10, align 8, !tbaa !13
  %59 = call i32 @PyObject_SetAttr(ptr noundef %54, ptr noundef %57, ptr noundef %58)
  %60 = icmp eq i32 %59, -1
  br i1 %60, label %61, label %62

61:                                               ; preds = %53
  br label %91

62:                                               ; preds = %53
  %63 = load ptr, ptr %10, align 8, !tbaa !13
  call void @Py_DECREF(ptr noundef %63)
  %64 = load ptr, ptr %5, align 8, !tbaa !9
  %65 = load ptr, ptr %6, align 8, !tbaa !147
  %66 = load ptr, ptr %8, align 8, !tbaa !123
  %67 = getelementptr inbounds nuw %struct._type_ignore, ptr %66, i32 0, i32 1
  %68 = getelementptr inbounds nuw %struct.anon.77, ptr %67, i32 0, i32 1
  %69 = load ptr, ptr %68, align 8, !tbaa !21
  %70 = call ptr @ast2obj_object(ptr noundef %64, ptr noundef %65, ptr noundef %69)
  store ptr %70, ptr %10, align 8, !tbaa !13
  %71 = load ptr, ptr %10, align 8, !tbaa !13
  %72 = icmp ne ptr %71, null
  br i1 %72, label %74, label %73

73:                                               ; preds = %62
  br label %91

74:                                               ; preds = %62
  %75 = load ptr, ptr %9, align 8, !tbaa !13
  %76 = load ptr, ptr %5, align 8, !tbaa !9
  %77 = getelementptr inbounds nuw %struct.ast_state, ptr %76, i32 0, i32 229
  %78 = load ptr, ptr %77, align 8, !tbaa !403
  %79 = load ptr, ptr %10, align 8, !tbaa !13
  %80 = call i32 @PyObject_SetAttr(ptr noundef %75, ptr noundef %78, ptr noundef %79)
  %81 = icmp eq i32 %80, -1
  br i1 %81, label %82, label %83

82:                                               ; preds = %74
  br label %91

83:                                               ; preds = %74
  %84 = load ptr, ptr %10, align 8, !tbaa !13
  call void @Py_DECREF(ptr noundef %84)
  br label %85

85:                                               ; preds = %28, %83
  %86 = load ptr, ptr %6, align 8, !tbaa !147
  %87 = getelementptr inbounds nuw %struct.validator, ptr %86, i32 0, i32 0
  %88 = load i32, ptr %87, align 4, !tbaa !146
  %89 = add i32 %88, -1
  store i32 %89, ptr %87, align 4, !tbaa !146
  %90 = load ptr, ptr %9, align 8, !tbaa !13
  store ptr %90, ptr %4, align 8
  store i32 1, ptr %12, align 4
  br label %98

91:                                               ; preds = %82, %73, %61, %52, %40
  %92 = load ptr, ptr %6, align 8, !tbaa !147
  %93 = getelementptr inbounds nuw %struct.validator, ptr %92, i32 0, i32 0
  %94 = load i32, ptr %93, align 4, !tbaa !146
  %95 = add i32 %94, -1
  store i32 %95, ptr %93, align 4, !tbaa !146
  %96 = load ptr, ptr %10, align 8, !tbaa !13
  call void @Py_XDECREF(ptr noundef %96)
  %97 = load ptr, ptr %9, align 8, !tbaa !13
  call void @Py_XDECREF(ptr noundef %97)
  store ptr null, ptr %4, align 8
  store i32 1, ptr %12, align 4
  br label %98

98:                                               ; preds = %91, %85, %26, %16
  call void @llvm.lifetime.end.p0(i64 8, ptr %11) #8
  call void @llvm.lifetime.end.p0(i64 8, ptr %10) #8
  call void @llvm.lifetime.end.p0(i64 8, ptr %9) #8
  call void @llvm.lifetime.end.p0(i64 8, ptr %8) #8
  %99 = load ptr, ptr %4, align 8
  ret ptr %99
}