; Function Attrs: nounwind uwtable
define internal ptr @ast2obj_type_ignore(ptr noundef readonly captures(none) %0, ptr noundef captures(none) %1, ptr noundef readonly %2) #0 {
  %.not = icmp eq ptr %2, null
  br i1 %.not, label %Py_XDECREF.exit47, label %4

4:                                                ; preds = %3
  %5 = load i32, ptr %1, align 4, !tbaa !111
  %6 = add i32 %5, 1
  store i32 %6, ptr %1, align 4, !tbaa !111
  %7 = getelementptr inbounds nuw i8, ptr %1, i64 4
  %8 = load i32, ptr %7, align 4, !tbaa !108
  %9 = icmp sgt i32 %6, %8
  br i1 %9, label %10, label %12

10:                                               ; preds = %4
  %11 = load ptr, ptr @PyExc_RecursionError, align 8, !tbaa !4
  tail call void @PyErr_SetString(ptr noundef %11, ptr noundef nonnull @.str.409) #8
  br label %Py_XDECREF.exit47

12:                                               ; preds = %4
  %13 = load i32, ptr %2, align 8, !tbaa !89
  %cond = icmp eq i32 %13, 1
  br i1 %cond, label %14, label %Py_DECREF.exit

14:                                               ; preds = %12
  %15 = getelementptr inbounds nuw i8, ptr %0, i64 1008
  %16 = load ptr, ptr %15, align 8, !tbaa !144
  %17 = tail call ptr @PyType_GenericNew(ptr noundef %16, ptr noundef null, ptr noundef null) #8
  %.not37 = icmp eq ptr %17, null
  br i1 %.not37, label %Py_XDECREF.exit.thread50, label %20

Py_XDECREF.exit.thread50:                         ; preds = %14
  %18 = load i32, ptr %1, align 4, !tbaa !111
  %19 = add i32 %18, -1
  store i32 %19, ptr %1, align 4, !tbaa !111
  br label %Py_XDECREF.exit47

20:                                               ; preds = %14
  %21 = getelementptr inbounds nuw i8, ptr %2, i64 8
  %22 = load i32, ptr %21, align 8, !tbaa !9
  %23 = sext i32 %22 to i64
  %24 = tail call ptr @PyLong_FromLong(i64 noundef range(i64 -2147483648, 2147483648) %23) #8
  %.not38 = icmp eq ptr %24, null
  br i1 %.not38, label %Py_XDECREF.exit, label %25

25:                                               ; preds = %20
  %26 = getelementptr inbounds nuw i8, ptr %0, i64 1616
  %27 = load ptr, ptr %26, align 8, !tbaa !145
  %28 = tail call i32 @PyObject_SetAttr(ptr noundef nonnull %17, ptr noundef %27, ptr noundef nonnull %24) #8
  %29 = icmp eq i32 %28, -1
  br i1 %29, label %54, label %30

30:                                               ; preds = %25
  %31 = load i32, ptr %24, align 8, !tbaa !9
  %.not.i40 = icmp sgt i32 %31, -1
  br i1 %.not.i40, label %32, label %Py_DECREF.exit41

32:                                               ; preds = %30
  %33 = add nsw i32 %31, -1
  store i32 %33, ptr %24, align 8, !tbaa !9
  %34 = icmp eq i32 %33, 0
  br i1 %34, label %35, label %Py_DECREF.exit41

35:                                               ; preds = %32
  tail call void @_Py_Dealloc(ptr noundef nonnull %24) #8
  br label %Py_DECREF.exit41

Py_DECREF.exit41:                                 ; preds = %30, %32, %35
  %36 = getelementptr inbounds nuw i8, ptr %2, i64 16
  %37 = load ptr, ptr %36, align 8, !tbaa !9
  %.not.i43 = icmp eq ptr %37, null
  %spec.store.select.i = select i1 %.not.i43, ptr @_Py_NoneStruct, ptr %37
  %38 = load i32, ptr %spec.store.select.i, align 8, !tbaa !9
  %39 = icmp slt i32 %38, 0
  br i1 %39, label %ast2obj_object.exit, label %40

40:                                               ; preds = %Py_DECREF.exit41
  %41 = add nuw i32 %38, 1
  store i32 %41, ptr %spec.store.select.i, align 8, !tbaa !9
  br label %ast2obj_object.exit

ast2obj_object.exit:                              ; preds = %40, %Py_DECREF.exit41
  %42 = getelementptr inbounds nuw i8, ptr %0, i64 1824
  %43 = load ptr, ptr %42, align 8, !tbaa !146
  %44 = tail call i32 @PyObject_SetAttr(ptr noundef nonnull %17, ptr noundef %43, ptr noundef nonnull %spec.store.select.i) #8
  %45 = icmp eq i32 %44, -1
  br i1 %45, label %54, label %46

46:                                               ; preds = %ast2obj_object.exit
  %47 = load i32, ptr %spec.store.select.i, align 8, !tbaa !9
  %.not.i = icmp sgt i32 %47, -1
  br i1 %.not.i, label %48, label %Py_DECREF.exit

48:                                               ; preds = %46
  %49 = add nsw i32 %47, -1
  store i32 %49, ptr %spec.store.select.i, align 8, !tbaa !9
  %50 = icmp eq i32 %49, 0
  br i1 %50, label %51, label %Py_DECREF.exit

51:                                               ; preds = %48
  tail call void @_Py_Dealloc(ptr noundef nonnull %spec.store.select.i) #8
  br label %Py_DECREF.exit

Py_DECREF.exit:                                   ; preds = %51, %48, %46, %12
  %.031 = phi ptr [ null, %12 ], [ %17, %46 ], [ %17, %48 ], [ %17, %51 ]
  %52 = load i32, ptr %1, align 4, !tbaa !111
  %53 = add i32 %52, -1
  store i32 %53, ptr %1, align 4, !tbaa !111
  br label %Py_XDECREF.exit47

54:                                               ; preds = %25, %ast2obj_object.exit
  %.030 = phi ptr [ %24, %25 ], [ %spec.store.select.i, %ast2obj_object.exit ]
  %55 = load i32, ptr %1, align 4, !tbaa !111
  %56 = add i32 %55, -1
  store i32 %56, ptr %1, align 4, !tbaa !111
  %57 = load i32, ptr %.030, align 8, !tbaa !9
  %.not.i.i = icmp sgt i32 %57, -1
  br i1 %.not.i.i, label %58, label %Py_XDECREF.exit.thread

58:                                               ; preds = %54
  %59 = add nsw i32 %57, -1
  store i32 %59, ptr %.030, align 8, !tbaa !9
  %60 = icmp eq i32 %59, 0
  br i1 %60, label %61, label %Py_XDECREF.exit.thread

61:                                               ; preds = %58
  tail call void @_Py_Dealloc(ptr noundef nonnull %.030) #8
  br label %Py_XDECREF.exit.thread

Py_XDECREF.exit:                                  ; preds = %20
  %62 = load i32, ptr %1, align 4, !tbaa !111
  %63 = add i32 %62, -1
  store i32 %63, ptr %1, align 4, !tbaa !111
  br label %Py_XDECREF.exit.thread

Py_XDECREF.exit.thread:                           ; preds = %61, %58, %54, %Py_XDECREF.exit
  %64 = load i32, ptr %17, align 8, !tbaa !9
  %.not.i.i46 = icmp sgt i32 %64, -1
  br i1 %.not.i.i46, label %65, label %Py_XDECREF.exit47

65:                                               ; preds = %Py_XDECREF.exit.thread
  %66 = add nsw i32 %64, -1
  store i32 %66, ptr %17, align 8, !tbaa !9
  %67 = icmp eq i32 %66, 0
  br i1 %67, label %68, label %Py_XDECREF.exit47

68:                                               ; preds = %65
  tail call void @_Py_Dealloc(ptr noundef nonnull %17) #8
  br label %Py_XDECREF.exit47

Py_XDECREF.exit47:                                ; preds = %68, %65, %Py_XDECREF.exit.thread, %Py_XDECREF.exit.thread50, %3, %Py_DECREF.exit, %10
  %.0 = phi ptr [ null, %10 ], [ %.031, %Py_DECREF.exit ], [ @_Py_NoneStruct, %3 ], [ null, %Py_XDECREF.exit.thread50 ], [ null, %Py_XDECREF.exit.thread ], [ null, %65 ], [ null, %68 ]
  ret ptr %.0
}